; Function Attrs: mustprogress uwtable
define internal void @_ZNSt17_Function_handlerIFSt10unique_ptrIN7testing12_GLOBAL__N_120ExhaustivenessTesterINS1_13ThrowingValueILNS1_8TypeSpecE0EEEEESt14default_deleteIS7_EEvENS1_19exceptions_internal14DefaultFactoryIS7_EEE9_M_invokeERKSt9_Any_data(ptr noalias nocapture writeonly sret(%"class.std::unique_ptr.642") align 8 %agg.result, ptr nocapture nonnull readnone align 8 %__functor) #3 align 2 personality ptr @__gxx_personality_v0 {
entry:
  tail call void @llvm.experimental.noalias.scope.decl(metadata !847)
  tail call void @llvm.experimental.noalias.scope.decl(metadata !850)
  tail call void @llvm.experimental.noalias.scope.decl(metadata !853)
  tail call void @llvm.experimental.noalias.scope.decl(metadata !856)
  %call.i.i.i.i = tail call noalias noundef nonnull dereferenceable(1) ptr @_Znwm(i64 noundef 1) #25, !noalias !859
  store ptr %call.i.i.i.i, ptr %agg.result, align 8, !alias.scope !859
  ret void
}